Certificate:
    Data:
        Version: 3 (0x2)
        Serial Number: 2 (0x2)
    Signature Algorithm: sha256WithRSAEncryption
        Issuer: C=US, ST=California, L=Santa Clara, O=Marvell, OU=BU, CN=Marvell CA/name=EasyRSA/emailAddress=abc@marvell.com
        Validity
            Not Before: Sep 10 11:18:35 2013 GMT
            Not After : Sep  8 11:18:35 2023 GMT
        Subject: C=US, ST=California, L=Santa Clara, O=Marvell, OU=BU, CN=client1/name=EasyRSA/emailAddress=abc@marvell.com
        Subject Public Key Info:
            Public Key Algorithm: rsaEncryption
                Public-Key: (1024 bit)
                Modulus:
                    00:db:29:ef:7a:cd:3b:69:e3:be:5f:49:4d:8b:8f:
                    e9:b0:4e:7f:25:4d:3b:7c:33:90:16:e5:c3:ec:2d:
                    9c:2b:aa:ab:53:69:e7:f6:43:e6:2e:9e:9a:13:4d:
                    5c:d1:88:3a:73:83:ae:66:51:d6:e7:42:6c:cc:a7:
                    a6:e2:dd:92:f7:a2:e8:b2:c7:c5:b2:8e:85:e1:f0:
                    0a:08:a3:d1:0a:99:d6:60:7d:3c:76:c6:10:f5:b7:
                    f8:f9:b1:ba:ab:a1:cb:f2:d5:7a:01:8d:c1:e1:91:
                    09:37:ba:c8:2b:5e:ef:1f:83:50:ef:69:e5:81:5a:
                    6c:62:0f:09:c0:fa:94:be:27
                Exponent: 65537 (0x10001)
        X509v3 extensions:
            X509v3 Basic Constraints: 
                CA:FALSE
            Netscape Comment: 
                Easy-RSA Generated Certificate
            X509v3 Subject Key Identifier: 
                06:DF:C2:72:65:50:FD:A5:14:D1:D3:8C:5A:45:C0:AC:6D:37:21:94
            X509v3 Authority Key Identifier: 
                keyid:B6:A5:D3:86:BC:E2:C3:62:D9:2A:59:E9:F0:57:FF:40:73:ED:45:C9
                DirName:/C=US/ST=California/L=Santa Clara/O=Marvell/OU=BU/CN=Marvell CA/name=EasyRSA/emailAddress=abc@marvell.com
                serial:EB:7B:1D:BC:57:07:43:02

            X509v3 Extended Key Usage: 
                TLS Web Client Authentication
            X509v3 Key Usage: 
                Digital Signature
    Signature Algorithm: sha256WithRSAEncryption
         2f:c1:80:f8:af:b2:1e:d1:95:91:bb:39:08:fb:3c:c6:dd:68:
         8b:62:df:29:60:76:00:1b:4c:03:3c:d6:2d:d5:aa:93:ed:05:
         32:65:29:6e:75:07:d6:ba:af:49:1a:29:81:72:2a:aa:20:ce:
         ab:b6:99:2a:5a:23:49:f1:2f:e7:e4:52:bc:76:3f:8e:18:0d:
         ad:fe:c8:06:44:48:14:69:73:ad:50:30:ee:e1:f8:09:8b:e7:
         a3:51:bc:a4:68:8f:b2:88:7c:ab:03:28:b4:9a:6d:aa:6c:9c:
         68:8c:c7:5b:b6:5d:4a:36:8b:32:03:c4:fc:c0:9c:0c:31:7a:
         92:b2
-----BEGIN CERTIFICATE-----
MIIECDCCA3GgAwIBAgIBAjANBgkqhkiG9w0BAQsFADCBnjELMAkGA1UEBhMCVVMx
EzARBgNVBAgTCkNhbGlmb3JuaWExFDASBgNVBAcTC1NhbnRhIENsYXJhMRAwDgYD
VQQKEwdNYXJ2ZWxsMQswCQYDVQQLEwJCVTETMBEGA1UEAxMKTWFydmVsbCBDQTEQ
MA4GA1UEKRMHRWFzeVJTQTEeMBwGCSqGSIb3DQEJARYPYWJjQG1hcnZlbGwuY29t
MB4XDTEzMDkxMDExMTgzNVoXDTIzMDkwODExMTgzNVowgZsxCzAJBgNVBAYTAlVT
MRMwEQYDVQQIEwpDYWxpZm9ybmlhMRQwEgYDVQQHEwtTYW50YSBDbGFyYTEQMA4G
A1UEChMHTWFydmVsbDELMAkGA1UECxMCQlUxEDAOBgNVBAMTB2NsaWVudDExEDAO
BgNVBCkTB0Vhc3lSU0ExHjAcBgkqhkiG9w0BCQEWD2FiY0BtYXJ2ZWxsLmNvbTCB
nzANBgkqhkiG9w0BAQEFAAOBjQAwgYkCgYEA2ynves07aeO+X0lNi4/psE5/JU07
fDOQFuXD7C2cK6qrU2nn9kPmLp6aE01c0Yg6c4OuZlHW50JszKem4t2S96LossfF
so6F4fAKCKPRCpnWYH08dsYQ9bf4+bG6q6HL8tV6AY3B4ZEJN7rIK17vH4NQ72nl
gVpsYg8JwPqUvicCAwEAAaOCAVUwggFRMAkGA1UdEwQCMAAwLQYJYIZIAYb4QgEN
BCAWHkVhc3ktUlNBIEdlbmVyYXRlZCBDZXJ0aWZpY2F0ZTAdBgNVHQ4EFgQUBt/C
cmVQ/aUU0dOMWkXArG03IZQwgdMGA1UdIwSByzCByIAUtqXThrziw2LZKlnp8Ff/
QHPtRcmhgaSkgaEwgZ4xCzAJBgNVBAYTAlVTMRMwEQYDVQQIEwpDYWxpZm9ybmlh
MRQwEgYDVQQHEwtTYW50YSBDbGFyYTEQMA4GA1UEChMHTWFydmVsbDELMAkGA1UE
CxMCQlUxEzARBgNVBAMTCk1hcnZlbGwgQ0ExEDAOBgNVBCkTB0Vhc3lSU0ExHjAc
BgkqhkiG9w0BCQEWD2FiY0BtYXJ2ZWxsLmNvbYIJAOt7HbxXB0MCMBMGA1UdJQQM
MAoGCCsGAQUFBwMCMAsGA1UdDwQEAwIHgDANBgkqhkiG9w0BAQsFAAOBgQAvwYD4
r7Ie0ZWRuzkI+zzG3WiLYt8pYHYAG0wDPNYt1aqT7QUyZSludQfWuq9JGimBciqq
IM6rtpkqWiNJ8S/n5FK8dj+OGA2t/sgGREgUaXOtUDDu4fgJi+ejUbykaI+yiHyr
Ayi0mm2qbJxojMdbtl1KNosyA8T8wJwMMXqSsg==
-----END CERTIFICATE-----
