Certificate:
    Data:
        Version: 3 (0x2)
        Serial Number: 1 (0x1)
    Signature Algorithm: sha256WithRSAEncryption
        Issuer: C=US, ST=California, L=Santa Clara, O=Marvell, OU=BU, CN=Marvell CA/name=EasyRSA/emailAddress=abc@marvell.com
        Validity
            Not Before: Sep 10 11:18:31 2013 GMT
            Not After : Sep  8 11:18:31 2023 GMT
        Subject: C=US, ST=California, L=Santa Clara, O=Marvell, OU=BU, CN=myserver/name=EasyRSA/emailAddress=abc@marvell.com
        Subject Public Key Info:
            Public Key Algorithm: rsaEncryption
                Public-Key: (1024 bit)
                Modulus:
                    00:a9:9b:33:df:ca:21:e9:37:17:a4:d8:47:be:52:
                    3d:22:65:27:c6:bf:fe:6d:71:2f:a7:c8:b9:ad:e8:
                    d2:6e:c5:eb:f8:80:4a:0c:76:08:8b:da:b1:e0:b3:
                    27:12:18:f1:c7:bf:d8:1e:1b:0f:7e:2e:c4:23:09:
                    39:58:aa:30:0d:67:b6:81:52:08:34:9d:38:8c:8f:
                    90:0c:61:fe:83:8d:e3:31:2e:ae:f8:ad:c7:0a:c7:
                    b3:51:42:5b:31:81:8f:c5:2e:04:91:3c:c5:67:e8:
                    0f:fc:1a:ee:4c:6e:8d:28:52:09:4c:52:dd:e1:73:
                    92:fc:bc:9c:d0:d5:46:e6:8f
                Exponent: 65537 (0x10001)
        X509v3 extensions:
            X509v3 Basic Constraints: 
                CA:FALSE
            Netscape Cert Type: 
                SSL Server
            Netscape Comment: 
                Easy-RSA Generated Server Certificate
            X509v3 Subject Key Identifier: 
                EF:F0:2C:7B:B7:A8:EE:B4:20:B2:66:85:99:6E:90:AD:9B:B3:93:D4
            X509v3 Authority Key Identifier: 
                keyid:B6:A5:D3:86:BC:E2:C3:62:D9:2A:59:E9:F0:57:FF:40:73:ED:45:C9
                DirName:/C=US/ST=California/L=Santa Clara/O=Marvell/OU=BU/CN=Marvell CA/name=EasyRSA/emailAddress=abc@marvell.com
                serial:EB:7B:1D:BC:57:07:43:02

            X509v3 Extended Key Usage: 
                TLS Web Server Authentication
            X509v3 Key Usage: 
                Digital Signature, Key Encipherment
    Signature Algorithm: sha256WithRSAEncryption
         a8:d7:63:80:98:fc:1d:23:bc:2b:51:93:82:71:ad:e0:45:66:
         f4:10:fc:2e:00:e8:8a:25:0a:e9:3a:2d:56:07:ac:7e:e7:19:
         6a:0a:57:c5:a5:71:da:61:e1:bd:ee:58:c0:13:9f:4e:02:72:
         38:b2:9b:cf:16:7a:a4:55:0d:c7:e0:4b:b0:f2:c9:bd:e6:3b:
         f0:67:d2:de:5d:4b:e3:48:d8:8a:de:b5:7c:7f:16:e3:d2:d5:
         0a:e6:26:bf:a4:62:94:81:1d:0b:b8:5d:c7:6c:9c:9c:5b:d2:
         b2:2c:7f:35:aa:3f:5d:76:95:46:58:63:45:55:ab:9d:d4:f5:
         c2:91
-----BEGIN CERTIFICATE-----
MIIEIzCCA4ygAwIBAgIBATANBgkqhkiG9w0BAQsFADCBnjELMAkGA1UEBhMCVVMx
EzARBgNVBAgTCkNhbGlmb3JuaWExFDASBgNVBAcTC1NhbnRhIENsYXJhMRAwDgYD
VQQKEwdNYXJ2ZWxsMQswCQYDVQQLEwJCVTETMBEGA1UEAxMKTWFydmVsbCBDQTEQ
MA4GA1UEKRMHRWFzeVJTQTEeMBwGCSqGSIb3DQEJARYPYWJjQG1hcnZlbGwuY29t
MB4XDTEzMDkxMDExMTgzMVoXDTIzMDkwODExMTgzMVowgZwxCzAJBgNVBAYTAlVT
MRMwEQYDVQQIEwpDYWxpZm9ybmlhMRQwEgYDVQQHEwtTYW50YSBDbGFyYTEQMA4G
A1UEChMHTWFydmVsbDELMAkGA1UECxMCQlUxETAPBgNVBAMTCG15c2VydmVyMRAw
DgYDVQQpEwdFYXN5UlNBMR4wHAYJKoZIhvcNAQkBFg9hYmNAbWFydmVsbC5jb20w
gZ8wDQYJKoZIhvcNAQEBBQADgY0AMIGJAoGBAKmbM9/KIek3F6TYR75SPSJlJ8a/
/m1xL6fIua3o0m7F6/iASgx2CIvaseCzJxIY8ce/2B4bD34uxCMJOViqMA1ntoFS
CDSdOIyPkAxh/oON4zEurvitxwrHs1FCWzGBj8UuBJE8xWfoD/wa7kxujShSCUxS
3eFzkvy8nNDVRuaPAgMBAAGjggFvMIIBazAJBgNVHRMEAjAAMBEGCWCGSAGG+EIB
AQQEAwIGQDA0BglghkgBhvhCAQ0EJxYlRWFzeS1SU0EgR2VuZXJhdGVkIFNlcnZl
ciBDZXJ0aWZpY2F0ZTAdBgNVHQ4EFgQU7/Ase7eo7rQgsmaFmW6QrZuzk9QwgdMG
A1UdIwSByzCByIAUtqXThrziw2LZKlnp8Ff/QHPtRcmhgaSkgaEwgZ4xCzAJBgNV
BAYTAlVTMRMwEQYDVQQIEwpDYWxpZm9ybmlhMRQwEgYDVQQHEwtTYW50YSBDbGFy
YTEQMA4GA1UEChMHTWFydmVsbDELMAkGA1UECxMCQlUxEzARBgNVBAMTCk1hcnZl
bGwgQ0ExEDAOBgNVBCkTB0Vhc3lSU0ExHjAcBgkqhkiG9w0BCQEWD2FiY0BtYXJ2
ZWxsLmNvbYIJAOt7HbxXB0MCMBMGA1UdJQQMMAoGCCsGAQUFBwMBMAsGA1UdDwQE
AwIFoDANBgkqhkiG9w0BAQsFAAOBgQCo12OAmPwdI7wrUZOCca3gRWb0EPwuAOiK
JQrpOi1WB6x+5xlqClfFpXHaYeG97ljAE59OAnI4spvPFnqkVQ3H4Euw8sm95jvw
Z9LeXUvjSNiK3rV8fxbj0tUK5ia/pGKUgR0LuF3HbJycW9KyLH81qj9ddpVGWGNF
Vaud1PXCkQ==
-----END CERTIFICATE-----
